target datalayout = "e-m:e-p270:32:32-p271:32:32-p272:64:64-i64:64-i128:128-f80:128-n8:16:32:64-S128"
target triple = "x86_64-pc-linux-gnu"

%struct.ident_t = type { i32, i32, i32, i32, ptr }
%"struct.faiss::Index.base" = type <{ ptr, i32, [4 x i8], i64, i8, i8, [2 x i8], i32, float }>
%"struct.faiss::ProductQuantizer" = type { %"struct.faiss::Quantizer", i64, i64, i64, i64, i8, i32, %"struct.faiss::ClusteringParameters", ptr, %"class.std::vector.0", %"class.std::vector.0", %"class.std::vector.0", %"class.std::vector.0" }
%"struct.faiss::Quantizer" = type { ptr, i64, i64 }
%"struct.faiss::ClusteringParameters" = type <{ i32, i32, i8, i8, i8, i8, i8, [3 x i8], i32, i32, i32, [4 x i8], i64, i8, i8, [6 x i8] }>
%"class.std::vector.0" = type { %"struct.std::_Vector_base.1" }
%"struct.std::_Vector_base.1" = type { %"struct.std::_Vector_base<float, std::allocator<float>>::_Vector_impl" }
%"struct.std::_Vector_base<float, std::allocator<float>>::_Vector_impl" = type { %"struct.std::_Vector_base<float, std::allocator<float>>::_Vector_impl_data" }
%"struct.std::_Vector_base<float, std::allocator<float>>::_Vector_impl_data" = type { ptr, ptr, ptr }
%"class.std::__cxx11::basic_string" = type { %"struct.std::__cxx11::basic_string<char>::_Alloc_hider", i64, %union.anon }
%"struct.std::__cxx11::basic_string<char>::_Alloc_hider" = type { ptr }
%union.anon = type { i64, [8 x i8] }
%"class.std::unique_ptr.24" = type { %"struct.std::__uniq_ptr_data.25" }
%"struct.std::__uniq_ptr_data.25" = type { %"class.std::__uniq_ptr_impl.26" }
%"class.std::__uniq_ptr_impl.26" = type { %"class.std::tuple.27" }
%"class.std::tuple.27" = type { %"struct.std::_Tuple_impl.28" }
%"struct.std::_Tuple_impl.28" = type { %"struct.std::_Head_base.31" }
%"struct.std::_Head_base.31" = type { ptr }
%"struct.faiss::IndexPQ" = type <{ %"struct.faiss::IndexFlatCodes", %"struct.faiss::ProductQuantizer", i8, [7 x i8], %"struct.faiss::PolysemousTraining", i32, i8, [3 x i8], i32, [4 x i8] }>
%"struct.faiss::IndexFlatCodes" = type { %"struct.faiss::Index.base", i64, %"class.std::vector" }
%"class.std::vector" = type { %"struct.std::_Vector_base" }
%"struct.std::_Vector_base" = type { %"struct.std::_Vector_base<unsigned char, std::allocator<unsigned char>>::_Vector_impl" }
%"struct.std::_Vector_base<unsigned char, std::allocator<unsigned char>>::_Vector_impl" = type { %"struct.std::_Vector_base<unsigned char, std::allocator<unsigned char>>::_Vector_impl_data" }
%"struct.std::_Vector_base<unsigned char, std::allocator<unsigned char>>::_Vector_impl_data" = type { ptr, ptr, ptr }
%"struct.faiss::PolysemousTraining" = type { %"struct.faiss::SimulatedAnnealingParameters.base", i32, i32, double, i64, %"class.std::__cxx11::basic_string" }
%"struct.faiss::SimulatedAnnealingParameters.base" = type <{ double, double, i32, i32, i32, i32, i8, i8 }>
%"class.std::unique_ptr" = type { %"struct.std::__uniq_ptr_data" }
%"struct.std::__uniq_ptr_data" = type { %"class.std::__uniq_ptr_impl" }
%"class.std::__uniq_ptr_impl" = type { %"class.std::tuple" }
%"class.std::tuple" = type { %"struct.std::_Tuple_impl" }
%"struct.std::_Tuple_impl" = type { %"struct.std::_Head_base.12" }
%"struct.std::_Head_base.12" = type { ptr }

@1 = private unnamed_addr constant %struct.ident_t { i32 0, i32 514, i32 0, i32 22, ptr @0 }, align 8

; Function Attrs: mustprogress nounwind uwtable
define linkonce_odr noundef nonnull align 8 dereferenceable(8) ptr @_ZNSt10_Head_baseILm0EPhLb0EE7_M_headERKS1_(ptr noundef nonnull align 8 dereferenceable(8) %0) #3 comdat align 2 {
  %2 = alloca ptr, align 8
  store ptr %0, ptr %2, align 8, !tbaa !254
  %3 = load ptr, ptr %2, align 8, !tbaa !254
  %4 = getelementptr inbounds nuw %"struct.std::_Head_base.12", ptr %3, i32 0, i32 0
  ret ptr %4
}

; Function Attrs: mustprogress nounwind uwtable
define linkonce_odr noundef nonnull align 8 dereferenceable(8) ptr @_ZNSt10_Head_baseILm0EPfLb0EE7_M_headERKS1_(ptr noundef nonnull align 8 dereferenceable(8) %0) #3 comdat align 2 {
  %2 = alloca ptr, align 8
  store ptr %0, ptr %2, align 8, !tbaa !310
  %3 = load ptr, ptr %2, align 8, !tbaa !310
  %4 = getelementptr inbounds nuw %"struct.std::_Head_base.31", ptr %3, i32 0, i32 0
  ret ptr %4
}

; Function Attrs: mustprogress nounwind uwtable
define linkonce_odr noundef nonnull align 8 dereferenceable(8) ptr @_ZNSt11_Tuple_implILm0EJPhSt14default_deleteIA_hEEE7_M_headERKS4_(ptr noundef nonnull align 8 dereferenceable(8) %0) #3 comdat align 2 {
  %2 = alloca ptr, align 8
  store ptr %0, ptr %2, align 8, !tbaa !250
  %3 = load ptr, ptr %2, align 8, !tbaa !250
  %4 = call noundef nonnull align 8 dereferenceable(8) ptr @_ZNSt10_Head_baseILm0EPhLb0EE7_M_headERKS1_(ptr noundef nonnull align 8 dereferenceable(8) %3) #20
  ret ptr %4
}

; Function Attrs: mustprogress nounwind uwtable
define linkonce_odr noundef nonnull align 8 dereferenceable(8) ptr @_ZNSt11_Tuple_implILm0EJPfSt14default_deleteIA_fEEE7_M_headERKS4_(ptr noundef nonnull align 8 dereferenceable(8) %0) #3 comdat align 2 {
  %2 = alloca ptr, align 8
  store ptr %0, ptr %2, align 8, !tbaa !306
  %3 = load ptr, ptr %2, align 8, !tbaa !306
  %4 = call noundef nonnull align 8 dereferenceable(8) ptr @_ZNSt10_Head_baseILm0EPfLb0EE7_M_headERKS1_(ptr noundef nonnull align 8 dereferenceable(8) %3) #20
  ret ptr %4
}

; Function Attrs: mustprogress nounwind uwtable
define linkonce_odr noundef nonnull align 8 dereferenceable(8) ptr @_ZSt12__get_helperILm0EPhJSt14default_deleteIA_hEEERKT0_RKSt11_Tuple_implIXT_EJS4_DpT1_EE(ptr noundef nonnull align 8 dereferenceable(8) %0) #3 comdat {
  %2 = alloca ptr, align 8
  store ptr %0, ptr %2, align 8, !tbaa !250
  %3 = load ptr, ptr %2, align 8, !tbaa !250
  %4 = call noundef nonnull align 8 dereferenceable(8) ptr @_ZNSt11_Tuple_implILm0EJPhSt14default_deleteIA_hEEE7_M_headERKS4_(ptr noundef nonnull align 8 dereferenceable(8) %3) #20
  ret ptr %4
}

; Function Attrs: mustprogress nounwind uwtable
define linkonce_odr noundef nonnull align 8 dereferenceable(8) ptr @_ZSt12__get_helperILm0EPfJSt14default_deleteIA_fEEERKT0_RKSt11_Tuple_implIXT_EJS4_DpT1_EE(ptr noundef nonnull align 8 dereferenceable(8) %0) #3 comdat {
  %2 = alloca ptr, align 8
  store ptr %0, ptr %2, align 8, !tbaa !306
  %3 = load ptr, ptr %2, align 8, !tbaa !306
  %4 = call noundef nonnull align 8 dereferenceable(8) ptr @_ZNSt11_Tuple_implILm0EJPfSt14default_deleteIA_fEEE7_M_headERKS4_(ptr noundef nonnull align 8 dereferenceable(8) %3) #20
  ret ptr %4
}

; Function Attrs: mustprogress nounwind uwtable
define linkonce_odr noundef nonnull align 8 dereferenceable(8) ptr @_ZSt3getILm0EJPhSt14default_deleteIA_hEEERKNSt13tuple_elementIXT_ESt5tupleIJDpT0_EEE4typeERKS8_(ptr noundef nonnull align 8 dereferenceable(8) %0) #3 comdat {
  %2 = alloca ptr, align 8
  store ptr %0, ptr %2, align 8, !tbaa !248
  %3 = load ptr, ptr %2, align 8, !tbaa !248
  %4 = call noundef nonnull align 8 dereferenceable(8) ptr @_ZSt12__get_helperILm0EPhJSt14default_deleteIA_hEEERKT0_RKSt11_Tuple_implIXT_EJS4_DpT1_EE(ptr noundef nonnull align 8 dereferenceable(8) %3) #20
  ret ptr %4
}

; Function Attrs: mustprogress nounwind uwtable
define linkonce_odr noundef nonnull align 8 dereferenceable(8) ptr @_ZSt3getILm0EJPfSt14default_deleteIA_fEEERKNSt13tuple_elementIXT_ESt5tupleIJDpT0_EEE4typeERKS8_(ptr noundef nonnull align 8 dereferenceable(8) %0) #3 comdat {
  %2 = alloca ptr, align 8
  store ptr %0, ptr %2, align 8, !tbaa !304
  %3 = load ptr, ptr %2, align 8, !tbaa !304
  %4 = call noundef nonnull align 8 dereferenceable(8) ptr @_ZSt12__get_helperILm0EPfJSt14default_deleteIA_fEEERKT0_RKSt11_Tuple_implIXT_EJS4_DpT1_EE(ptr noundef nonnull align 8 dereferenceable(8) %3) #20
  ret ptr %4
}

; Function Attrs: mustprogress nounwind uwtable
define linkonce_odr noundef ptr @_ZNKSt15__uniq_ptr_implIhSt14default_deleteIA_hEE6_M_ptrEv(ptr noundef nonnull align 8 dereferenceable(8) %0) #3 comdat align 2 {
  %2 = alloca ptr, align 8
  store ptr %0, ptr %2, align 8, !tbaa !246
  %3 = load ptr, ptr %2, align 8
  %4 = getelementptr inbounds nuw %"class.std::__uniq_ptr_impl", ptr %3, i32 0, i32 0
  %5 = call noundef nonnull align 8 dereferenceable(8) ptr @_ZSt3getILm0EJPhSt14default_deleteIA_hEEERKNSt13tuple_elementIXT_ESt5tupleIJDpT0_EEE4typeERKS8_(ptr noundef nonnull align 8 dereferenceable(8) %4) #20
  %6 = load ptr, ptr %5, align 8, !tbaa !97
  ret ptr %6
}

; Function Attrs: mustprogress nounwind uwtable
define linkonce_odr noundef ptr @_ZNKSt15__uniq_ptr_implIfSt14default_deleteIA_fEE6_M_ptrEv(ptr noundef nonnull align 8 dereferenceable(8) %0) #3 comdat align 2 {
  %2 = alloca ptr, align 8
  store ptr %0, ptr %2, align 8, !tbaa !302
  %3 = load ptr, ptr %2, align 8
  %4 = getelementptr inbounds nuw %"class.std::__uniq_ptr_impl.26", ptr %3, i32 0, i32 0
  %5 = call noundef nonnull align 8 dereferenceable(8) ptr @_ZSt3getILm0EJPfSt14default_deleteIA_fEEERKNSt13tuple_elementIXT_ESt5tupleIJDpT0_EEE4typeERKS8_(ptr noundef nonnull align 8 dereferenceable(8) %4) #20
  %6 = load ptr, ptr %5, align 8, !tbaa !13
  ret ptr %6
}

; Function Attrs: mustprogress nounwind uwtable
define linkonce_odr noundef ptr @_ZNKSt10unique_ptrIA_hSt14default_deleteIS0_EE3getEv(ptr noundef nonnull align 8 dereferenceable(8) %0) #3 comdat align 2 {
  %2 = alloca ptr, align 8
  store ptr %0, ptr %2, align 8, !tbaa !235
  %3 = load ptr, ptr %2, align 8
  %4 = getelementptr inbounds nuw %"class.std::unique_ptr", ptr %3, i32 0, i32 0
  %5 = call noundef ptr @_ZNKSt15__uniq_ptr_implIhSt14default_deleteIA_hEE6_M_ptrEv(ptr noundef nonnull align 8 dereferenceable(8) %4) #20
  ret ptr %5
}

; Function Attrs: mustprogress nounwind uwtable
define linkonce_odr noundef ptr @_ZNKSt10unique_ptrIA_fSt14default_deleteIS0_EE3getEv(ptr noundef nonnull align 8 dereferenceable(8) %0) #3 comdat align 2 {
  %2 = alloca ptr, align 8
  store ptr %0, ptr %2, align 8, !tbaa !282
  %3 = load ptr, ptr %2, align 8
  %4 = getelementptr inbounds nuw %"class.std::unique_ptr.24", ptr %3, i32 0, i32 0
  %5 = call noundef ptr @_ZNKSt15__uniq_ptr_implIfSt14default_deleteIA_fEE6_M_ptrEv(ptr noundef nonnull align 8 dereferenceable(8) %4) #20
  ret ptr %5
}

; Function Attrs: alwaysinline norecurse nounwind uwtable
define internal void @_ZNK5faiss7IndexPQ22search_core_polysemousElPKflPfPlib.omp_outlined(ptr noalias noundef %0, ptr noalias noundef %1, ptr noundef nonnull align 8 dereferenceable(8) %2, ptr noundef %3, ptr noundef nonnull align 8 dereferenceable(8) %4, ptr noundef nonnull align 8 dereferenceable(8) %5) #19 personality ptr @__gxx_personality_v0 {
  %7 = alloca ptr, align 8
  %8 = alloca ptr, align 8
  %9 = alloca ptr, align 8
  %10 = alloca ptr, align 8
  %11 = alloca ptr, align 8
  %12 = alloca ptr, align 8
  %13 = alloca i64, align 8
  %14 = alloca i64, align 8
  %15 = alloca i64, align 8
  %16 = alloca i64, align 8
  %17 = alloca i64, align 8
  %18 = alloca i64, align 8
  %19 = alloca i64, align 8
  %20 = alloca i32, align 4
  %21 = alloca i64, align 8
  store ptr %0, ptr %7, align 8, !tbaa !239
  store ptr %1, ptr %8, align 8, !tbaa !239
  store ptr %2, ptr %9, align 8, !tbaa !41
  store ptr %3, ptr %10, align 8, !tbaa !50
  store ptr %4, ptr %11, align 8, !tbaa !282
  store ptr %5, ptr %12, align 8, !tbaa !235
  %22 = load ptr, ptr %9, align 8, !tbaa !41
  %23 = load ptr, ptr %10, align 8, !tbaa !50
  %24 = load ptr, ptr %11, align 8, !tbaa !282
  %25 = load ptr, ptr %12, align 8, !tbaa !235
  call void @llvm.lifetime.start.p0(i64 8, ptr %13) #20
  call void @llvm.lifetime.start.p0(i64 8, ptr %14) #20
  %26 = load i64, ptr %22, align 8, !tbaa !11
  store i64 %26, ptr %14, align 8, !tbaa !11
  call void @llvm.lifetime.start.p0(i64 8, ptr %15) #20
  %27 = load i64, ptr %14, align 8, !tbaa !11
  %28 = sub nsw i64 %27, 0
  %29 = sdiv i64 %28, 1
  %30 = sub nsw i64 %29, 1
  store i64 %30, ptr %15, align 8, !tbaa !11
  call void @llvm.lifetime.start.p0(i64 8, ptr %16) #20
  store i64 0, ptr %16, align 8, !tbaa !11
  call void @llvm.lifetime.end.p0(i64 8, ptr %16) #20
  %31 = load i64, ptr %14, align 8, !tbaa !11
  %32 = icmp slt i64 0, %31
  br i1 %32, label %33, label %84

33:                                               ; preds = %6
  call void @llvm.lifetime.start.p0(i64 8, ptr %17) #20
  store i64 0, ptr %17, align 8, !tbaa !11
  call void @llvm.lifetime.start.p0(i64 8, ptr %18) #20
  %34 = load i64, ptr %15, align 8, !tbaa !11
  store i64 %34, ptr %18, align 8, !tbaa !11
  call void @llvm.lifetime.start.p0(i64 8, ptr %19) #20
  store i64 1, ptr %19, align 8, !tbaa !11
  call void @llvm.lifetime.start.p0(i64 4, ptr %20) #20
  store i32 0, ptr %20, align 4, !tbaa !36
  call void @llvm.lifetime.start.p0(i64 8, ptr %21) #20
  %35 = load ptr, ptr %7, align 8
  %36 = load i32, ptr %35, align 4, !tbaa !36
  call void @__kmpc_for_static_init_8(ptr @1, i32 %36, i32 34, ptr %20, ptr %17, ptr %18, ptr %19, i64 1, i64 1)
  %37 = load i64, ptr %18, align 8, !tbaa !11
  %38 = load i64, ptr %15, align 8, !tbaa !11
  %39 = icmp sgt i64 %37, %38
  br i1 %39, label %40, label %42

40:                                               ; preds = %33
  %41 = load i64, ptr %15, align 8, !tbaa !11
  br label %44

42:                                               ; preds = %33
  %43 = load i64, ptr %18, align 8, !tbaa !11
  br label %44

44:                                               ; preds = %42, %40
  %45 = phi i64 [ %41, %40 ], [ %43, %42 ]
  store i64 %45, ptr %18, align 8, !tbaa !11
  %46 = load i64, ptr %17, align 8, !tbaa !11
  store i64 %46, ptr %13, align 8, !tbaa !11
  br label %47

47:                                               ; preds = %77, %44
  %48 = load i64, ptr %13, align 8, !tbaa !11
  %49 = load i64, ptr %18, align 8, !tbaa !11
  %50 = icmp sle i64 %48, %49
  br i1 %50, label %52, label %51

51:                                               ; preds = %47
  br label %80

52:                                               ; preds = %47
  %53 = load i64, ptr %13, align 8, !tbaa !11
  %54 = mul nsw i64 %53, 1
  %55 = add nsw i64 0, %54
  store i64 %55, ptr %21, align 8, !tbaa !11
  %56 = getelementptr inbounds nuw %"struct.faiss::IndexPQ", ptr %23, i32 0, i32 1
  %57 = call noundef ptr @_ZNKSt10unique_ptrIA_fSt14default_deleteIS0_EE3getEv(ptr noundef nonnull align 8 dereferenceable(8) %24) #20
  %58 = load i64, ptr %21, align 8, !tbaa !11
  %59 = getelementptr inbounds nuw %"struct.faiss::IndexPQ", ptr %23, i32 0, i32 1
  %60 = getelementptr inbounds nuw %"struct.faiss::ProductQuantizer", ptr %59, i32 0, i32 1
  %61 = load i64, ptr %60, align 8, !tbaa !96
  %62 = mul i64 %58, %61
  %63 = getelementptr inbounds nuw %"struct.faiss::IndexPQ", ptr %23, i32 0, i32 1
  %64 = getelementptr inbounds nuw %"struct.faiss::ProductQuantizer", ptr %63, i32 0, i32 4
  %65 = load i64, ptr %64, align 8, !tbaa !233
  %66 = mul i64 %62, %65
  %67 = getelementptr inbounds nuw float, ptr %57, i64 %66
  %68 = call noundef ptr @_ZNKSt10unique_ptrIA_hSt14default_deleteIS0_EE3getEv(ptr noundef nonnull align 8 dereferenceable(8) %25) #20
  %69 = load i64, ptr %21, align 8, !tbaa !11
  %70 = getelementptr inbounds nuw %"struct.faiss::IndexPQ", ptr %23, i32 0, i32 1
  %71 = getelementptr inbounds nuw %"struct.faiss::Quantizer", ptr %70, i32 0, i32 2
  %72 = load i64, ptr %71, align 8, !tbaa !93
  %73 = mul i64 %69, %72
  %74 = getelementptr inbounds nuw i8, ptr %68, i64 %73
  invoke void @_ZNK5faiss16ProductQuantizer32compute_code_from_distance_tableEPKfPh(ptr noundef nonnull align 8 dereferenceable(216) %56, ptr noundef %67, ptr noundef %74)
          to label %75 unwind label %85

75:                                               ; preds = %52
  br label %76

76:                                               ; preds = %75
  br label %77

77:                                               ; preds = %76
  %78 = load i64, ptr %13, align 8, !tbaa !11
  %79 = add nsw i64 %78, 1
  store i64 %79, ptr %13, align 8, !tbaa !11
  br label %47

80:                                               ; preds = %51
  br label %81

81:                                               ; preds = %80
  %82 = load ptr, ptr %7, align 8
  %83 = load i32, ptr %82, align 4, !tbaa !36
  call void @__kmpc_for_static_fini(ptr @1, i32 %83)
  call void @llvm.lifetime.end.p0(i64 8, ptr %21) #20
  call void @llvm.lifetime.end.p0(i64 4, ptr %20) #20
  call void @llvm.lifetime.end.p0(i64 8, ptr %19) #20
  call void @llvm.lifetime.end.p0(i64 8, ptr %18) #20
  call void @llvm.lifetime.end.p0(i64 8, ptr %17) #20
  br label %84

84:                                               ; preds = %81, %6
  call void @llvm.lifetime.end.p0(i64 8, ptr %15) #20
  call void @llvm.lifetime.end.p0(i64 8, ptr %14) #20
  call void @llvm.lifetime.end.p0(i64 8, ptr %13) #20
  ret void

85:                                               ; preds = %52
  %86 = landingpad { ptr, i32 }
          catch ptr null
  %87 = extractvalue { ptr, i32 } %86, 0
  call void @__clang_call_terminate(ptr %87) #27
  unreachable
}