; Function Attrs: alwaysinline norecurse nounwind uwtable
define internal void @_ZNK5faiss7IndexPQ22search_core_polysemousElPKflPfPlib.omp_outlined(ptr noalias noundef readonly captures(none) %0, ptr noalias readnone captures(none) %1, ptr noundef nonnull readonly align 8 captures(none) dereferenceable(8) %2, ptr noundef %3, ptr noundef nonnull readonly align 8 captures(none) dereferenceable(8) %4, ptr noundef nonnull readonly align 8 captures(none) dereferenceable(8) %5) #19 personality ptr @__gxx_personality_v0 {
  %7 = alloca i64, align 8
  %8 = alloca i64, align 8
  %9 = alloca i64, align 8
  %10 = alloca i32, align 4
  %11 = load i64, ptr %2, align 8, !tbaa !41
  %12 = icmp sgt i64 %11, 0
  br i1 %12, label %13, label %37

13:                                               ; preds = %6
  %14 = add nsw i64 %11, -1
  call void @llvm.lifetime.start.p0(i64 8, ptr nonnull %7) #20
  store i64 0, ptr %7, align 8, !tbaa !41
  call void @llvm.lifetime.start.p0(i64 8, ptr nonnull %8) #20
  store i64 %14, ptr %8, align 8, !tbaa !41
  call void @llvm.lifetime.start.p0(i64 8, ptr nonnull %9) #20
  store i64 1, ptr %9, align 8, !tbaa !41
  call void @llvm.lifetime.start.p0(i64 4, ptr nonnull %10) #20
  store i32 0, ptr %10, align 4, !tbaa !49
  %15 = load i32, ptr %0, align 4, !tbaa !49
  call void @__kmpc_for_static_init_8(ptr nonnull @1, i32 %15, i32 34, ptr nonnull %10, ptr nonnull %7, ptr nonnull %8, ptr nonnull %9, i64 1, i64 1)
  %16 = load i64, ptr %8, align 8, !tbaa !41
  %17 = call i64 @llvm.smin.i64(i64 %16, i64 %14)
  store i64 %17, ptr %8, align 8, !tbaa !41
  %18 = load i64, ptr %7, align 8, !tbaa !41
  %.not15 = icmp sgt i64 %18, %17
  br i1 %.not15, label %._crit_edge, label %.lr.ph

.lr.ph:                                           ; preds = %13
  %19 = getelementptr inbounds nuw i8, ptr %3, i64 72
  %20 = getelementptr inbounds nuw i8, ptr %3, i64 96
  %21 = getelementptr inbounds nuw i8, ptr %3, i64 120
  %22 = getelementptr inbounds nuw i8, ptr %3, i64 88
  br label %23

23:                                               ; preds = %.lr.ph, %34
  %.016 = phi i64 [ %18, %.lr.ph ], [ %35, %34 ]
  %24 = load ptr, ptr %4, align 8, !tbaa !46
  %25 = load i64, ptr %20, align 8, !tbaa !93
  %26 = mul i64 %25, %.016
  %27 = load i64, ptr %21, align 8, !tbaa !156
  %28 = mul i64 %26, %27
  %29 = getelementptr inbounds nuw float, ptr %24, i64 %28
  %30 = load ptr, ptr %5, align 8, !tbaa !157
  %31 = load i64, ptr %22, align 8, !tbaa !90
  %32 = mul i64 %31, %.016
  %33 = getelementptr inbounds nuw i8, ptr %30, i64 %32
  invoke void @_ZNK5faiss16ProductQuantizer32compute_code_from_distance_tableEPKfPh(ptr noundef nonnull align 8 dereferenceable(216) %19, ptr noundef %29, ptr noundef %33)
          to label %34 unwind label %38

34:                                               ; preds = %23
  %35 = add nsw i64 %.016, 1
  %36 = load i64, ptr %8, align 8, !tbaa !41
  %.not.not = icmp slt i64 %.016, %36
  br i1 %.not.not, label %23, label %._crit_edge

._crit_edge:                                      ; preds = %34, %13
  call void @__kmpc_for_static_fini(ptr nonnull @1, i32 %15)
  call void @llvm.lifetime.end.p0(i64 4, ptr nonnull %10) #20
  call void @llvm.lifetime.end.p0(i64 8, ptr nonnull %9) #20
  call void @llvm.lifetime.end.p0(i64 8, ptr nonnull %8) #20
  call void @llvm.lifetime.end.p0(i64 8, ptr nonnull %7) #20
  br label %37

37:                                               ; preds = %._crit_edge, %6
  ret void

38:                                               ; preds = %23
  %39 = landingpad { ptr, i32 }
          catch ptr null
  %40 = extractvalue { ptr, i32 } %39, 0
  call void @__clang_call_terminate(ptr %40) #34
  unreachable
}